; Function Attrs: mustprogress uwtable
define range(i32 0, 2) i32 @cvGrabFrame(ptr noundef %0) local_unnamed_addr #3 {
  %.not = icmp eq ptr %0, null
  br i1 %.not, label %8, label %2

2:                                                ; preds = %1
  %3 = load ptr, ptr %0, align 8, !tbaa !30
  %4 = getelementptr inbounds nuw i8, ptr %3, i64 32
  %5 = load ptr, ptr %4, align 8
  %6 = tail call noundef zeroext i1 %5(ptr noundef nonnull align 8 dereferenceable(8) %0)
  %7 = zext i1 %6 to i32
  br label %8

8:                                                ; preds = %1, %2
  %9 = phi i32 [ %7, %2 ], [ 0, %1 ]
  ret i32 %9
}